target datalayout = "e-m:e-p270:32:32-p271:32:32-p272:64:64-i64:64-i128:128-f80:128-n8:16:32:64-S128"
target triple = "x86_64-pc-linux-gnu"

%"class.grpc_core::Timestamp" = type { i64 }
%"class.grpc_core::HPackTable::MementoRingBuffer" = type { i32, i32, i32, i32, %"class.grpc_core::Timestamp", %"class.std::vector" }
%"class.std::vector" = type { %"struct.std::_Vector_base" }
%"struct.std::_Vector_base" = type { %"struct.std::_Vector_base<grpc_core::HPackTable::Memento, std::allocator<grpc_core::HPackTable::Memento>>::_Vector_impl" }
%"struct.std::_Vector_base<grpc_core::HPackTable::Memento, std::allocator<grpc_core::HPackTable::Memento>>::_Vector_impl" = type { %"struct.std::_Vector_base<grpc_core::HPackTable::Memento, std::allocator<grpc_core::HPackTable::Memento>>::_Vector_impl_data" }
%"struct.std::_Vector_base<grpc_core::HPackTable::Memento, std::allocator<grpc_core::HPackTable::Memento>>::_Vector_impl_data" = type { ptr, ptr, ptr }
%"class.grpc_core::HPackTable" = type { i32, i32, i32, %"class.grpc_core::HPackTable::MementoRingBuffer", ptr }

; Function Attrs: mustprogress nounwind uwtable
define linkonce_odr noundef i32 @_ZNK9grpc_core10HPackTable17MementoRingBuffer11num_entriesEv(ptr noundef nonnull align 8 dereferenceable(48) %0) #8 comdat align 2 {
  %2 = alloca ptr, align 8
  store ptr %0, ptr %2, align 8, !tbaa !3
  %3 = load ptr, ptr %2, align 8
  %4 = getelementptr inbounds nuw %"class.grpc_core::HPackTable::MementoRingBuffer", ptr %3, i32 0, i32 1
  %5 = load i32, ptr %4, align 4, !tbaa !10
  ret i32 %5
}

; Function Attrs: mustprogress uwtable
define void @_ZN9grpc_core10HPackTable29AddLargerThanCurrentTableSizeEv(ptr noundef nonnull align 8 dereferenceable(72) %0) #4 align 2 {
  %2 = alloca ptr, align 8
  store ptr %0, ptr %2, align 8, !tbaa !63
  %3 = load ptr, ptr %2, align 8
  br label %4

4:                                                ; preds = %8, %1
  %5 = getelementptr inbounds nuw %"class.grpc_core::HPackTable", ptr %3, i32 0, i32 3
  %6 = call noundef i32 @_ZNK9grpc_core10HPackTable17MementoRingBuffer11num_entriesEv(ptr noundef nonnull align 8 dereferenceable(48) %5)
  %7 = icmp ne i32 %6, 0
  br i1 %7, label %8, label %9

8:                                                ; preds = %4
  call void @_ZN9grpc_core10HPackTable8EvictOneEv(ptr noundef nonnull align 8 dereferenceable(72) %3)
  br label %4, !llvm.loop !85

9:                                                ; preds = %4
  ret void
}