; Function Attrs: mustprogress uwtable
define void @_ZN9grpc_core10HPackTable29AddLargerThanCurrentTableSizeEv(ptr noundef nonnull align 8 captures(none) dereferenceable(72) %0) local_unnamed_addr #8 align 2 {
  %2 = getelementptr inbounds nuw i8, ptr %0, i64 20
  %3 = load i32, ptr %2, align 4, !tbaa !3
  %.not1 = icmp eq i32 %3, 0
  br i1 %.not1, label %._crit_edge, label %.lr.ph

.lr.ph:                                           ; preds = %1, %.lr.ph
  tail call void @_ZN9grpc_core10HPackTable8EvictOneEv(ptr noundef nonnull align 8 dereferenceable(72) %0)
  %4 = load i32, ptr %2, align 4, !tbaa !3
  %.not = icmp eq i32 %4, 0
  br i1 %.not, label %._crit_edge, label %.lr.ph, !llvm.loop !67

._crit_edge:                                      ; preds = %.lr.ph, %1
  ret void
}